; Function Attrs: mustprogress nounwind uwtable
define dso_local noundef ptr @_ZN4llvm9MDBuilder24createTBAAStructTypeNodeENS_9StringRefENS_8ArrayRefISt4pairIPNS_6MDNodeEmEEE(ptr nocapture noundef nonnull readonly align 8 dereferenceable(8) %0, ptr %1, i64 %2, ptr nocapture readonly %3, i64 %4) local_unnamed_addr #0 align 2 {
  %6 = alloca %"class.llvm::SmallVector", align 8
  %7 = shl i64 %4, 1
  %8 = or disjoint i64 %7, 1
  %9 = getelementptr inbounds i8, ptr %6, i64 16
  call void @_ZN4llvm15SmallVectorBaseIjEC2EPvm(ptr noundef nonnull align 8 dereferenceable(16) %6, ptr noundef nonnull %9, i64 noundef 4) #8
  call void @_ZN4llvm15SmallVectorImplIPNS_8MetadataEE10resizeImplILb0EEEvm(ptr noundef nonnull align 8 dereferenceable(16) %6, i64 noundef %8)
  %10 = load ptr, ptr %0, align 8
  %11 = call noundef ptr @_ZN4llvm4Type10getInt64TyERNS_11LLVMContextE(ptr noundef nonnull align 8 dereferenceable(8) %10) #8
  %12 = load ptr, ptr %0, align 8
  %13 = call noundef ptr @_ZN4llvm8MDString3getERNS_11LLVMContextENS_9StringRefE(ptr noundef nonnull align 8 dereferenceable(8) %12, ptr %1, i64 %2) #8
  %14 = load ptr, ptr %6, align 8
  store ptr %13, ptr %14, align 8
  %15 = and i64 %4, 4294967295
  %.not13 = icmp eq i64 %15, 0
  br i1 %.not13, label %._crit_edge, label %.lr.ph.preheader

.lr.ph.preheader:                                 ; preds = %5
  %16 = and i64 %4, 4294967295
  br label %.lr.ph

.lr.ph:                                           ; preds = %.lr.ph.preheader, %.lr.ph
  %indvars.iv = phi i64 [ 0, %.lr.ph.preheader ], [ %indvars.iv.next, %.lr.ph ]
  %17 = getelementptr inbounds %"struct.std::pair.32", ptr %3, i64 %indvars.iv
  %18 = load ptr, ptr %17, align 8
  %19 = trunc nuw i64 %indvars.iv to i32
  %20 = shl i32 %19, 1
  %21 = or disjoint i32 %20, 1
  %22 = zext i32 %21 to i64
  %23 = load ptr, ptr %6, align 8
  %24 = getelementptr inbounds ptr, ptr %23, i64 %22
  store ptr %18, ptr %24, align 8
  %25 = getelementptr inbounds nuw i8, ptr %17, i64 8
  %26 = load i64, ptr %25, align 8
  %27 = call noundef ptr @_ZN4llvm11ConstantInt3getEPNS_4TypeEmb(ptr noundef %11, i64 noundef %26, i1 noundef zeroext false) #8
  %28 = call noundef ptr @_ZN4llvm15ValueAsMetadata3getEPNS_5ValueE(ptr noundef %27) #8
  %29 = add i32 %20, 2
  %30 = zext i32 %29 to i64
  %31 = load ptr, ptr %6, align 8
  %32 = getelementptr inbounds ptr, ptr %31, i64 %30
  store ptr %28, ptr %32, align 8
  %indvars.iv.next = add nuw nsw i64 %indvars.iv, 1
  %.not = icmp eq i64 %indvars.iv.next, %16
  br i1 %.not, label %._crit_edge, label %.lr.ph, !llvm.loop !9

._crit_edge:                                      ; preds = %.lr.ph, %5
  %33 = load ptr, ptr %0, align 8
  %34 = load ptr, ptr %6, align 8
  %35 = call noundef i64 @_ZNK4llvm15SmallVectorBaseIjE4sizeEv(ptr noundef nonnull align 8 dereferenceable(16) %6) #8
  %36 = call noundef ptr @_ZN4llvm7MDTuple7getImplERNS_11LLVMContextENS_8ArrayRefIPNS_8MetadataEEENS4_11StorageTypeEb(ptr noundef nonnull align 8 dereferenceable(8) %33, ptr %34, i64 %35, i32 noundef 0, i1 noundef zeroext true) #8
  %37 = call noundef i64 @_ZNK4llvm15SmallVectorBaseIjE4sizeEv(ptr noundef nonnull align 8 dereferenceable(16) %6) #8
  %38 = load ptr, ptr %6, align 8
  %39 = icmp eq ptr %38, %9
  br i1 %39, label %_ZN4llvm11SmallVectorIPNS_8MetadataELj4EED2Ev.exit, label %40

40:                                               ; preds = %._crit_edge
  call void @free(ptr noundef %38) #8
  br label %_ZN4llvm11SmallVectorIPNS_8MetadataELj4EED2Ev.exit

_ZN4llvm11SmallVectorIPNS_8MetadataELj4EED2Ev.exit: ; preds = %._crit_edge, %40
  ret ptr %36
}